target datalayout = "e-m:e-p270:32:32-p271:32:32-p272:64:64-i64:64-i128:128-f80:128-n8:16:32:64-S128"
target triple = "x86_64-unknown-linux-gnu"

%struct.VirtIODevice = type { %struct.DeviceState, ptr, i8, i8, i16, i64, i64, i64, i64, ptr, i16, i32, i32, ptr, %struct.MemoryListener, i16, i8, i8, i8, i8, i8, i8, i8, i8, i8, ptr, ptr, i8, i8, ptr, ptr, %union.anon.1, %struct.EventNotifier, i8 }
%struct.DeviceState = type { %struct.Object, ptr, ptr, i8, i8, i64, ptr, i32, i8, ptr, %struct.NamedGPIOListHead, %struct.NamedClockListHead, %struct.BusStateHead, i32, i32, i32, %struct.ResettableState, ptr, %struct.MemReentrancyGuard }
%struct.Object = type { ptr, ptr, ptr, i32, ptr }
%struct.NamedGPIOListHead = type { ptr }
%struct.NamedClockListHead = type { ptr }
%struct.BusStateHead = type { ptr }
%struct.ResettableState = type { i32, i8, i8 }
%struct.MemReentrancyGuard = type { i8 }
%struct.MemoryListener = type { ptr, ptr, ptr, ptr, ptr, ptr, ptr, ptr, ptr, ptr, ptr, ptr, ptr, ptr, ptr, ptr, ptr, i32, ptr, ptr, %union.anon, %union.anon.0 }
%union.anon = type { %struct.QTailQLink }
%struct.QTailQLink = type { ptr, ptr }
%union.anon.0 = type { %struct.QTailQLink }
%union.anon.1 = type { %struct.QTailQLink }
%struct.EventNotifier = type { i32, i32, i8 }
%struct.VirtQueue = type { %struct.VRing, ptr, i16, i8, i16, i8, i16, i8, i16, i8, i8, i16, i32, i16, ptr, ptr, %struct.EventNotifier, %struct.EventNotifier, i8, %struct.anon }
%struct.VRing = type { i32, i32, i32, i64, i64, i64, ptr }
%struct.anon = type { ptr, ptr }

@.str.64 = private unnamed_addr constant [10 x i8] c"fbit < 64\00", align 1
@.str.65 = private unnamed_addr constant [105 x i8] c"/home/dtcxzyw/WorkSpace/Projects/compilers/llvm-opt-benchmark/bench/qemu/qemu/include/hw/virtio/virtio.h\00", align 1
@__PRETTY_FUNCTION__.virtio_has_feature = private unnamed_addr constant [49 x i8] c"_Bool virtio_has_feature(uint64_t, unsigned int)\00", align 1

; Function Attrs: nounwind sspstrong uwtable
define internal zeroext i1 @virtio_has_feature(i64 noundef %features, i32 noundef %fbit) #0 {
entry:
  %features.addr = alloca i64, align 8
  %fbit.addr = alloca i32, align 4
  store i64 %features, ptr %features.addr, align 8
  store i32 %fbit, ptr %fbit.addr, align 4
  %0 = load i32, ptr %fbit.addr, align 4
  %cmp = icmp ult i32 %0, 64
  br i1 %cmp, label %if.then, label %if.else

if.then:                                          ; preds = %entry
  br label %if.end

if.else:                                          ; preds = %entry
  call void @__assert_fail(ptr noundef @.str.64, ptr noundef @.str.65, i32 noundef 422, ptr noundef @__PRETTY_FUNCTION__.virtio_has_feature) #13
  unreachable

if.end:                                           ; preds = %if.then
  %1 = load i64, ptr %features.addr, align 8
  %2 = load i32, ptr %fbit.addr, align 4
  %sh_prom = zext i32 %2 to i64
  %shl = shl i64 1, %sh_prom
  %and = and i64 %1, %shl
  %tobool = icmp ne i64 %and, 0
  %lnot = xor i1 %tobool, true
  %lnot1 = xor i1 %lnot, true
  ret i1 %lnot1
}

; Function Attrs: nounwind sspstrong uwtable
define internal zeroext i16 @virtio_queue_split_get_last_avail_idx(ptr noundef %vdev, i32 noundef %n) #0 {
entry:
  %vdev.addr = alloca ptr, align 8
  %n.addr = alloca i32, align 4
  store ptr %vdev, ptr %vdev.addr, align 8
  store i32 %n, ptr %n.addr, align 4
  %0 = load ptr, ptr %vdev.addr, align 8
  %vq = getelementptr inbounds %struct.VirtIODevice, ptr %0, i32 0, i32 13
  %1 = load ptr, ptr %vq, align 8
  %2 = load i32, ptr %n.addr, align 4
  %idxprom = sext i32 %2 to i64
  %arrayidx = getelementptr %struct.VirtQueue, ptr %1, i64 %idxprom
  %last_avail_idx = getelementptr inbounds %struct.VirtQueue, ptr %arrayidx, i32 0, i32 2
  %3 = load i16, ptr %last_avail_idx, align 8
  ret i16 %3
}

; Function Attrs: nounwind sspstrong uwtable
define internal i32 @virtio_queue_packed_get_last_avail_idx(ptr noundef %vdev, i32 noundef %n) #0 {
entry:
  %vdev.addr = alloca ptr, align 8
  %n.addr = alloca i32, align 4
  %avail = alloca i32, align 4
  %used = alloca i32, align 4
  store ptr %vdev, ptr %vdev.addr, align 8
  store i32 %n, ptr %n.addr, align 4
  %0 = load ptr, ptr %vdev.addr, align 8
  %vq = getelementptr inbounds %struct.VirtIODevice, ptr %0, i32 0, i32 13
  %1 = load ptr, ptr %vq, align 8
  %2 = load i32, ptr %n.addr, align 4
  %idxprom = sext i32 %2 to i64
  %arrayidx = getelementptr %struct.VirtQueue, ptr %1, i64 %idxprom
  %last_avail_idx = getelementptr inbounds %struct.VirtQueue, ptr %arrayidx, i32 0, i32 2
  %3 = load i16, ptr %last_avail_idx, align 8
  %conv = zext i16 %3 to i32
  store i32 %conv, ptr %avail, align 4
  %4 = load ptr, ptr %vdev.addr, align 8
  %vq1 = getelementptr inbounds %struct.VirtIODevice, ptr %4, i32 0, i32 13
  %5 = load ptr, ptr %vq1, align 8
  %6 = load i32, ptr %n.addr, align 4
  %idxprom2 = sext i32 %6 to i64
  %arrayidx3 = getelementptr %struct.VirtQueue, ptr %5, i64 %idxprom2
  %last_avail_wrap_counter = getelementptr inbounds %struct.VirtQueue, ptr %arrayidx3, i32 0, i32 3
  %7 = load i8, ptr %last_avail_wrap_counter, align 2
  %tobool = trunc i8 %7 to i1
  %conv4 = zext i1 %tobool to i16
  %conv5 = zext i16 %conv4 to i32
  %shl = shl i32 %conv5, 15
  %8 = load i32, ptr %avail, align 4
  %or = or i32 %8, %shl
  store i32 %or, ptr %avail, align 4
  %9 = load ptr, ptr %vdev.addr, align 8
  %vq6 = getelementptr inbounds %struct.VirtIODevice, ptr %9, i32 0, i32 13
  %10 = load ptr, ptr %vq6, align 8
  %11 = load i32, ptr %n.addr, align 4
  %idxprom7 = sext i32 %11 to i64
  %arrayidx8 = getelementptr %struct.VirtQueue, ptr %10, i64 %idxprom7
  %used_idx = getelementptr inbounds %struct.VirtQueue, ptr %arrayidx8, i32 0, i32 6
  %12 = load i16, ptr %used_idx, align 8
  %conv9 = zext i16 %12 to i32
  store i32 %conv9, ptr %used, align 4
  %13 = load ptr, ptr %vdev.addr, align 8
  %vq10 = getelementptr inbounds %struct.VirtIODevice, ptr %13, i32 0, i32 13
  %14 = load ptr, ptr %vq10, align 8
  %15 = load i32, ptr %n.addr, align 4
  %idxprom11 = sext i32 %15 to i64
  %arrayidx12 = getelementptr %struct.VirtQueue, ptr %14, i64 %idxprom11
  %used_wrap_counter = getelementptr inbounds %struct.VirtQueue, ptr %arrayidx12, i32 0, i32 7
  %16 = load i8, ptr %used_wrap_counter, align 2
  %tobool13 = trunc i8 %16 to i1
  %conv14 = zext i1 %tobool13 to i16
  %conv15 = zext i16 %conv14 to i32
  %shl16 = shl i32 %conv15, 15
  %17 = load i32, ptr %used, align 4
  %or17 = or i32 %17, %shl16
  store i32 %or17, ptr %used, align 4
  %18 = load i32, ptr %avail, align 4
  %19 = load i32, ptr %used, align 4
  %shl18 = shl i32 %19, 16
  %or19 = or i32 %18, %shl18
  ret i32 %or19
}

; Function Attrs: nounwind sspstrong uwtable
define internal zeroext i1 @virtio_vdev_has_feature(ptr noundef %vdev, i32 noundef %fbit) #0 {
entry:
  %vdev.addr = alloca ptr, align 8
  %fbit.addr = alloca i32, align 4
  store ptr %vdev, ptr %vdev.addr, align 8
  store i32 %fbit, ptr %fbit.addr, align 4
  %0 = load ptr, ptr %vdev.addr, align 8
  %guest_features = getelementptr inbounds %struct.VirtIODevice, ptr %0, i32 0, i32 6
  %1 = load i64, ptr %guest_features, align 8
  %2 = load i32, ptr %fbit.addr, align 4
  %call = call zeroext i1 @virtio_has_feature(i64 noundef %1, i32 noundef %2)
  ret i1 %call
}

; Function Attrs: nounwind sspstrong uwtable
define dso_local i32 @virtio_queue_get_last_avail_idx(ptr noundef %vdev, i32 noundef %n) #0 {
entry:
  %retval = alloca i32, align 4
  %vdev.addr = alloca ptr, align 8
  %n.addr = alloca i32, align 4
  store ptr %vdev, ptr %vdev.addr, align 8
  store i32 %n, ptr %n.addr, align 4
  %0 = load ptr, ptr %vdev.addr, align 8
  %call = call zeroext i1 @virtio_vdev_has_feature(ptr noundef %0, i32 noundef 34)
  br i1 %call, label %if.then, label %if.else

if.then:                                          ; preds = %entry
  %1 = load ptr, ptr %vdev.addr, align 8
  %2 = load i32, ptr %n.addr, align 4
  %call1 = call i32 @virtio_queue_packed_get_last_avail_idx(ptr noundef %1, i32 noundef %2)
  store i32 %call1, ptr %retval, align 4
  br label %return

if.else:                                          ; preds = %entry
  %3 = load ptr, ptr %vdev.addr, align 8
  %4 = load i32, ptr %n.addr, align 4
  %call2 = call zeroext i16 @virtio_queue_split_get_last_avail_idx(ptr noundef %3, i32 noundef %4)
  %conv = zext i16 %call2 to i32
  store i32 %conv, ptr %retval, align 4
  br label %return

return:                                           ; preds = %if.else, %if.then
  %5 = load i32, ptr %retval, align 4
  ret i32 %5
}