; Function Attrs: mustprogress nofree norecurse nosync nounwind sspstrong willreturn memory(read, inaccessiblemem: none) uwtable
define dso_local i32 @virtio_queue_get_last_avail_idx(ptr noundef readonly captures(none) %vdev, i32 noundef %n) local_unnamed_addr #2 {
entry:
  %0 = getelementptr i8, ptr %vdev, i64 184
  %vdev.val = load i64, ptr %0, align 8
  %and.i.i = and i64 %vdev.val, 17179869184
  %tobool.i.i.not = icmp eq i64 %and.i.i, 0
  %1 = getelementptr i8, ptr %vdev, i64 232
  %vdev.val5 = load ptr, ptr %1, align 8
  %idxprom.i6 = sext i32 %n to i64
  br i1 %tobool.i.i.not, label %if.else, label %if.then

if.then:                                          ; preds = %entry
  %arrayidx.i = getelementptr %struct.VirtQueue, ptr %vdev.val5, i64 %idxprom.i6
  %last_avail_idx.i = getelementptr inbounds nuw i8, ptr %arrayidx.i, i64 56
  %2 = load i16, ptr %last_avail_idx.i, align 8
  %conv.i = zext i16 %2 to i32
  %last_avail_wrap_counter.i = getelementptr inbounds nuw i8, ptr %arrayidx.i, i64 58
  %3 = load i8, ptr %last_avail_wrap_counter.i, align 2
  %4 = and i8 %3, 1
  %conv5.i = zext nneg i8 %4 to i32
  %shl.i = shl nuw nsw i32 %conv5.i, 15
  %used_idx.i = getelementptr inbounds nuw i8, ptr %arrayidx.i, i64 64
  %5 = load i16, ptr %used_idx.i, align 8
  %conv9.i = zext i16 %5 to i32
  %used_wrap_counter.i = getelementptr inbounds nuw i8, ptr %arrayidx.i, i64 66
  %6 = load i8, ptr %used_wrap_counter.i, align 2
  %conv15.i = zext i8 %6 to i32
  %7 = shl i32 %conv15.i, 31
  %8 = shl nuw i32 %conv9.i, 16
  %shl18.i = or i32 %shl.i, %conv.i
  %or.i = or disjoint i32 %shl18.i, %8
  %or19.i = or i32 %or.i, %7
  br label %return

if.else:                                          ; preds = %entry
  %last_avail_idx.i7 = getelementptr %struct.VirtQueue, ptr %vdev.val5, i64 %idxprom.i6, i32 2
  %9 = load i16, ptr %last_avail_idx.i7, align 8
  %conv = zext i16 %9 to i32
  br label %return

return:                                           ; preds = %if.else, %if.then
  %retval.0 = phi i32 [ %or19.i, %if.then ], [ %conv, %if.else ]
  ret i32 %retval.0
}